; Function Attrs: nounwind uwtable
define dso_local ptr @get_dh1024dsa(ptr noundef %0) local_unnamed_addr #0 {
  %2 = tail call ptr @BN_bin2bn(ptr noundef nonnull @get_dh1024dsa.dh1024_p, i32 noundef 128, ptr noundef null) #3
  %3 = tail call ptr @BN_bin2bn(ptr noundef nonnull @get_dh1024dsa.dh1024_g, i32 noundef 128, ptr noundef null) #3
  %4 = icmp eq ptr %2, null
  %5 = icmp eq ptr %3, null
  %or.cond.i = select i1 %4, i1 true, i1 %5
  br i1 %or.cond.i, label %get_dh_from_pg.exit, label %6

6:                                                ; preds = %1
  %7 = tail call fastcc ptr @get_dh_from_pg_bn(ptr noundef %0, ptr noundef nonnull @.str, ptr noundef %2, ptr noundef %3, ptr noundef null)
  br label %get_dh_from_pg.exit

get_dh_from_pg.exit:                              ; preds = %1, %6
  %.018.i = phi ptr [ null, %1 ], [ %7, %6 ]
  tail call void @BN_free(ptr noundef %2) #3
  tail call void @BN_free(ptr noundef %3) #3
  tail call void @BN_free(ptr noundef null) #3
  ret ptr %.018.i
}